Certificate:
    Data:
        Version: 3 (0x2)
        Serial Number:
            d7:63:1d:10:54:33:0f:88:30:c8:49:37:c6:93:d0:4b
    Signature Algorithm: sha256WithRSAEncryption
        Issuer: C=GB, ST=Greater Manchester, L=Salford, O=COMODO CA Limited, CN=COMODO RSA Domain Validation Secure Server CA
        Validity
            Not Before: Oct 15 00:00:00 2015 GMT
            Not After : Oct 14 23:59:59 2016 GMT
        Subject: OU=Domain Control Validated, OU=PositiveSSL, CN=advancedwebtesting.com
        Subject Public Key Info:
            Public Key Algorithm: rsaEncryption
                Public-Key: (2048 bit)
                Modulus:
                    00:f5:70:c5:0b:07:11:42:d9:23:51:aa:5e:6d:0e:
                    b0:7a:0c:27:fa:8d:6e:8e:af:c0:f5:8f:f1:43:50:
                    9d:28:69:84:e6:94:06:2f:6e:f0:b7:55:22:b0:f0:
                    1b:f9:89:d5:79:d9:85:25:c3:ea:58:b6:61:f8:ac:
                    5c:e8:76:19:71:08:51:37:07:07:44:d7:d6:fa:1c:
                    e4:f4:fb:4a:ef:d6:47:a4:9c:52:d4:22:63:96:73:
                    d7:41:8d:08:cd:7d:15:87:4f:e9:23:b5:2e:ab:3a:
                    3e:f3:13:95:1e:bb:33:77:f8:e7:a4:94:70:8a:a2:
                    63:e5:5d:eb:ef:02:cd:d6:3e:93:bd:15:7e:cb:32:
                    3d:99:97:5e:b2:ec:73:88:78:65:db:54:8f:ac:f9:
                    fa:db:bf:68:c0:c4:10:cf:70:bf:2f:d8:28:01:e8:
                    b1:52:7b:25:a6:41:f9:00:be:ca:8e:36:68:40:a1:
                    d4:f1:93:5c:83:67:af:f8:4a:80:c7:4e:4f:9f:9b:
                    2d:6b:99:35:75:6b:8d:88:cf:24:69:91:b2:93:11:
                    8c:09:d1:f3:1c:24:f2:af:ec:98:8e:fc:3b:b4:0f:
                    41:cd:60:57:3b:c6:3b:b2:c5:da:8c:d9:f6:d3:c3:
                    7b:68:c4:d1:15:68:50:e7:f3:31:0e:4a:36:03:91:
                    a7:c3
                Exponent: 65537 (0x10001)
        X509v3 extensions:
            X509v3 Authority Key Identifier: 
                keyid:90:AF:6A:3A:94:5A:0B:D8:90:EA:12:56:73:DF:43:B4:3A:28:DA:E7

            X509v3 Subject Key Identifier: 
                62:1D:C1:8B:E5:46:C9:10:7A:B4:3F:76:57:13:5F:4D:BC:84:78:72
            X509v3 Key Usage: critical
                Digital Signature, Key Encipherment
            X509v3 Basic Constraints: critical
                CA:FALSE
            X509v3 Extended Key Usage: 
                TLS Web Server Authentication, TLS Web Client Authentication
            X509v3 Certificate Policies: 
                Policy: 1.3.6.1.4.1.6449.1.2.2.7
                  CPS: https://secure.comodo.com/CPS
                Policy: 2.23.140.1.2.1

            X509v3 CRL Distribution Points: 

                Full Name:
                  URI:http://crl.comodoca.com/COMODORSADomainValidationSecureServerCA.crl

            Authority Information Access: 
                CA Issuers - URI:http://crt.comodoca.com/COMODORSADomainValidationSecureServerCA.crt
                OCSP - URI:http://ocsp.comodoca.com

            X509v3 Subject Alternative Name: 
                DNS:advancedwebtesting.com, DNS:www.advancedwebtesting.com
    Signature Algorithm: sha256WithRSAEncryption
         0c:fb:87:a5:81:85:cc:91:b4:1e:8d:29:ee:ce:af:be:a3:15:
         10:fc:30:53:1d:7c:1e:2b:a4:d3:94:7f:1d:16:77:c9:83:38:
         7f:38:ec:ef:56:30:29:f3:7b:1f:cb:bf:7f:d0:c7:41:c4:98:
         e0:b5:ba:61:f2:ab:2c:17:42:8c:4d:16:94:59:6a:b3:4a:b4:
         38:2b:b2:fe:99:57:c8:79:6e:d3:a8:c1:34:bc:69:6a:6e:bd:
         74:81:c9:86:42:f9:74:aa:f1:87:96:4f:97:4e:c4:15:2a:93:
         a6:00:54:e2:1f:9c:5d:52:7a:67:6c:ec:f9:39:15:cc:c8:23:
         07:20:8f:0a:a7:5d:34:e0:62:49:90:9c:13:6e:a3:c4:54:a6:
         a8:be:cb:a6:08:80:8e:8e:9f:ef:e3:b5:e6:fa:5b:d4:3e:3d:
         c1:4a:58:7e:f1:e8:12:18:f4:26:f5:cb:43:50:e4:83:7a:20:
         21:d4:92:98:22:ff:d4:8b:97:20:25:49:1c:fa:70:1b:97:29:
         10:b6:96:a3:99:d5:e0:aa:4a:89:19:6f:c3:59:3d:80:89:04:
         ce:7d:78:20:37:e5:9b:a1:b0:66:85:35:ab:32:a0:87:84:b5:
         9b:c4:f3:65:a0:7b:31:ee:72:17:01:c1:be:49:c3:66:54:0a:
         69:d1:4c:78
-----BEGIN CERTIFICATE-----
MIIFZzCCBE+gAwIBAgIRANdjHRBUMw+IMMhJN8aT0EswDQYJKoZIhvcNAQELBQAw
gZAxCzAJBgNVBAYTAkdCMRswGQYDVQQIExJHcmVhdGVyIE1hbmNoZXN0ZXIxEDAO
BgNVBAcTB1NhbGZvcmQxGjAYBgNVBAoTEUNPTU9ETyBDQSBMaW1pdGVkMTYwNAYD
VQQDEy1DT01PRE8gUlNBIERvbWFpbiBWYWxpZGF0aW9uIFNlY3VyZSBTZXJ2ZXIg
Q0EwHhcNMTUxMDE1MDAwMDAwWhcNMTYxMDE0MjM1OTU5WjBaMSEwHwYDVQQLExhE
b21haW4gQ29udHJvbCBWYWxpZGF0ZWQxFDASBgNVBAsTC1Bvc2l0aXZlU1NMMR8w
HQYDVQQDExZhZHZhbmNlZHdlYnRlc3RpbmcuY29tMIIBIjANBgkqhkiG9w0BAQEF
AAOCAQ8AMIIBCgKCAQEA9XDFCwcRQtkjUapebQ6wegwn+o1ujq/A9Y/xQ1CdKGmE
5pQGL27wt1UisPAb+YnVedmFJcPqWLZh+Kxc6HYZcQhRNwcHRNfW+hzk9PtK79ZH
pJxS1CJjlnPXQY0IzX0Vh0/pI7Uuqzo+8xOVHrszd/jnpJRwiqJj5V3r7wLN1j6T
vRV+yzI9mZdesuxziHhl21SPrPn6279owMQQz3C/L9goAeixUnslpkH5AL7KjjZo
QKHU8ZNcg2ev+EqAx05Pn5sta5k1dWuNiM8kaZGykxGMCdHzHCTyr+yYjvw7tA9B
zWBXO8Y7ssXajNn208N7aMTRFWhQ5/MxDko2A5GnwwIDAQABo4IB7zCCAeswHwYD
VR0jBBgwFoAUkK9qOpRaC9iQ6hJWc99DtDoo2ucwHQYDVR0OBBYEFGIdwYvlRskQ
erQ/dlcTX028hHhyMA4GA1UdDwEB/wQEAwIFoDAMBgNVHRMBAf8EAjAAMB0GA1Ud
JQQWMBQGCCsGAQUFBwMBBggrBgEFBQcDAjBPBgNVHSAESDBGMDoGCysGAQQBsjEB
AgIHMCswKQYIKwYBBQUHAgEWHWh0dHBzOi8vc2VjdXJlLmNvbW9kby5jb20vQ1BT
MAgGBmeBDAECATBUBgNVHR8ETTBLMEmgR6BFhkNodHRwOi8vY3JsLmNvbW9kb2Nh
LmNvbS9DT01PRE9SU0FEb21haW5WYWxpZGF0aW9uU2VjdXJlU2VydmVyQ0EuY3Js
MIGFBggrBgEFBQcBAQR5MHcwTwYIKwYBBQUHMAKGQ2h0dHA6Ly9jcnQuY29tb2Rv
Y2EuY29tL0NPTU9ET1JTQURvbWFpblZhbGlkYXRpb25TZWN1cmVTZXJ2ZXJDQS5j
cnQwJAYIKwYBBQUHMAGGGGh0dHA6Ly9vY3NwLmNvbW9kb2NhLmNvbTA9BgNVHREE
NjA0ghZhZHZhbmNlZHdlYnRlc3RpbmcuY29tghp3d3cuYWR2YW5jZWR3ZWJ0ZXN0
aW5nLmNvbTANBgkqhkiG9w0BAQsFAAOCAQEADPuHpYGFzJG0Ho0p7s6vvqMVEPww
Ux18Hiuk05R/HRZ3yYM4fzjs71YwKfN7H8u/f9DHQcSY4LW6YfKrLBdCjE0WlFlq
s0q0OCuy/plXyHlu06jBNLxpam69dIHJhkL5dKrxh5ZPl07EFSqTpgBU4h+cXVJ6
Z2zs+TkVzMgjByCPCqddNOBiSZCcE26jxFSmqL7LpgiAjo6f7+O15vpb1D49wUpY
fvHoEhj0JvXLQ1Dkg3ogIdSSmCL/1IuXICVJHPpwG5cpELaWo5nV4KpKiRlvw1k9
gIkEzn14IDflm6GwZoU1qzKgh4S1m8TzZaB7Me5yFwHBvknDZlQKadFMeA==
-----END CERTIFICATE-----
Certificate:
    Data:
        Version: 3 (0x2)
        Serial Number:
            2b:2e:6e:ea:d9:75:36:6c:14:8a:6e:db:a3:7c:8c:07
    Signature Algorithm: sha384WithRSAEncryption
        Issuer: C=GB, ST=Greater Manchester, L=Salford, O=COMODO CA Limited, CN=COMODO RSA Certification Authority
        Validity
            Not Before: Feb 12 00:00:00 2014 GMT
            Not After : Feb 11 23:59:59 2029 GMT
        Subject: C=GB, ST=Greater Manchester, L=Salford, O=COMODO CA Limited, CN=COMODO RSA Domain Validation Secure Server CA
        Subject Public Key Info:
            Public Key Algorithm: rsaEncryption
                Public-Key: (2048 bit)
                Modulus:
                    00:8e:c2:02:19:e1:a0:59:a4:eb:38:35:8d:2c:fd:
                    01:d0:d3:49:c0:64:c7:0b:62:05:45:16:3a:a8:a0:
                    c0:0c:02:7f:1d:cc:db:c4:a1:6d:77:03:a3:0f:86:
                    f9:e3:06:9c:3e:0b:81:8a:9b:49:1b:ad:03:be:fa:
                    4b:db:8c:20:ed:d5:ce:5e:65:8e:3e:0d:af:4c:c2:
                    b0:b7:45:5e:52:2f:34:de:48:24:64:b4:41:ae:00:
                    97:f7:be:67:de:9e:d0:7a:a7:53:80:3b:7c:ad:f5:
                    96:55:6f:97:47:0a:7c:85:8b:22:97:8d:b3:84:e0:
                    96:57:d0:70:18:60:96:8f:ee:2d:07:93:9d:a1:ba:
                    ca:d1:cd:7b:e9:c4:2a:9a:28:21:91:4d:6f:92:4f:
                    25:a5:f2:7a:35:dd:26:dc:46:a5:d0:ac:59:35:8c:
                    ff:4e:91:43:50:3f:59:93:1e:6c:51:21:ee:58:14:
                    ab:fe:75:50:78:3e:4c:b0:1c:86:13:fa:6b:98:bc:
                    e0:3b:94:1e:85:52:dc:03:93:24:18:6e:cb:27:51:
                    45:e6:70:de:25:43:a4:0d:e1:4a:a5:ed:b6:7e:c8:
                    cd:6d:ee:2e:1d:27:73:5d:dc:45:30:80:aa:e3:b2:
                    41:0b:af:bd:44:87:da:b9:e5:1b:9d:7f:ae:e5:85:
                    82:a5
                Exponent: 65537 (0x10001)
        X509v3 extensions:
            X509v3 Authority Key Identifier: 
                keyid:BB:AF:7E:02:3D:FA:A6:F1:3C:84:8E:AD:EE:38:98:EC:D9:32:32:D4

            X509v3 Subject Key Identifier: 
                90:AF:6A:3A:94:5A:0B:D8:90:EA:12:56:73:DF:43:B4:3A:28:DA:E7
            X509v3 Key Usage: critical
                Digital Signature, Certificate Sign, CRL Sign
            X509v3 Basic Constraints: critical
                CA:TRUE, pathlen:0
            X509v3 Extended Key Usage: 
                TLS Web Server Authentication, TLS Web Client Authentication
            X509v3 Certificate Policies: 
                Policy: X509v3 Any Policy
                Policy: 2.23.140.1.2.1

            X509v3 CRL Distribution Points: 

                Full Name:
                  URI:http://crl.comodoca.com/COMODORSACertificationAuthority.crl

            Authority Information Access: 
                CA Issuers - URI:http://crt.comodoca.com/COMODORSAAddTrustCA.crt
                OCSP - URI:http://ocsp.comodoca.com

    Signature Algorithm: sha384WithRSAEncryption
         4e:2b:76:4f:92:1c:62:36:89:ba:77:c1:27:05:f4:1c:d6:44:
         9d:a9:9a:3e:aa:d5:66:66:01:3e:ea:49:e6:a2:35:bc:fa:f6:
         dd:95:8e:99:35:98:0e:36:18:75:b1:dd:dd:50:72:7c:ae:dc:
         77:88:ce:0f:f7:90:20:ca:a3:67:2e:1f:56:7f:7b:e1:44:ea:
         42:95:c4:5d:0d:01:50:46:15:f2:81:89:59:6c:8a:dd:8c:f1:
         12:a1:8d:3a:42:8a:98:f8:4b:34:7b:27:3b:08:b4:6f:24:3b:
         72:9d:63:74:58:3c:1a:6c:3f:4f:c7:11:9a:c8:a8:f5:b5:37:
         ef:10:45:c6:6c:d9:e0:5e:95:26:b3:eb:ad:a3:b9:ee:7f:0c:
         9a:66:35:73:32:60:4e:e5:dd:8a:61:2c:6e:52:11:77:68:96:
         d3:18:75:51:15:00:1b:74:88:dd:e1:c7:38:04:43:28:e9:16:
         fd:d9:05:d4:5d:47:27:60:d6:fb:38:3b:6c:72:a2:94:f8:42:
         1a:df:ed:6f:06:8c:45:c2:06:00:aa:e4:e8:dc:d9:b5:e1:73:
         78:ec:f6:23:dc:d1:dd:6c:8e:1a:8f:a5:ea:54:7c:96:b7:c3:
         fe:55:8e:8d:49:5e:fc:64:bb:cf:3e:bd:96:eb:69:cd:bf:e0:
         48:f1:62:82:10:e5:0c:46:57:f2:33:da:d0:c8:63:ed:c6:1f:
         94:05:96:4a:1a:91:d1:f7:eb:cf:8f:52:ae:0d:08:d9:3e:a8:
         a0:51:e9:c1:87:74:d5:c9:f7:74:ab:2e:53:fb:bb:7a:fb:97:
         e2:f8:1f:26:8f:b3:d2:a0:e0:37:5b:28:3b:31:e5:0e:57:2d:
         5a:b8:ad:79:ac:5e:20:66:1a:a5:b9:a6:b5:39:c1:f5:98:43:
         ff:ee:f9:a7:a7:fd:ee:ca:24:3d:80:16:c4:17:8f:8a:c1:60:
         a1:0c:ae:5b:43:47:91:4b:d5:9a:17:5f:f9:d4:87:c1:c2:8c:
         b7:e7:e2:0f:30:19:37:86:ac:e0:dc:42:03:e6:94:a8:9d:ae:
         fd:0f:24:51:94:ce:92:08:d1:fc:50:f0:03:40:7b:88:59:ed:
         0e:dd:ac:d2:77:82:34:dc:06:95:02:d8:90:f9:2d:ea:37:d5:
         1a:60:d0:67:20:d7:d8:42:0b:45:af:82:68:de:dd:66:24:37:
         90:29:94:19:46:19:25:b8:80:d7:cb:d4:86:28:6a:44:70:26:
         23:62:a9:9f:86:6f:bf:ba:90:70:d2:56:77:85:78:ef:ea:25:
         a9:17:ce:50:72:8c:00:3a:aa:e3:db:63:34:9f:f8:06:71:01:
         e2:82:20:d4:fe:6f:bd:b1
-----BEGIN CERTIFICATE-----
MIIGCDCCA/CgAwIBAgIQKy5u6tl1NmwUim7bo3yMBzANBgkqhkiG9w0BAQwFADCB
hTELMAkGA1UEBhMCR0IxGzAZBgNVBAgTEkdyZWF0ZXIgTWFuY2hlc3RlcjEQMA4G
A1UEBxMHU2FsZm9yZDEaMBgGA1UEChMRQ09NT0RPIENBIExpbWl0ZWQxKzApBgNV
BAMTIkNPTU9ETyBSU0EgQ2VydGlmaWNhdGlvbiBBdXRob3JpdHkwHhcNMTQwMjEy
MDAwMDAwWhcNMjkwMjExMjM1OTU5WjCBkDELMAkGA1UEBhMCR0IxGzAZBgNVBAgT
EkdyZWF0ZXIgTWFuY2hlc3RlcjEQMA4GA1UEBxMHU2FsZm9yZDEaMBgGA1UEChMR
Q09NT0RPIENBIExpbWl0ZWQxNjA0BgNVBAMTLUNPTU9ETyBSU0EgRG9tYWluIFZh
bGlkYXRpb24gU2VjdXJlIFNlcnZlciBDQTCCASIwDQYJKoZIhvcNAQEBBQADggEP
ADCCAQoCggEBAI7CAhnhoFmk6zg1jSz9AdDTScBkxwtiBUUWOqigwAwCfx3M28Sh
bXcDow+G+eMGnD4LgYqbSRutA776S9uMIO3Vzl5ljj4Nr0zCsLdFXlIvNN5IJGS0
Qa4Al/e+Z96e0HqnU4A7fK31llVvl0cKfIWLIpeNs4TgllfQcBhglo/uLQeTnaG6
ytHNe+nEKpooIZFNb5JPJaXyejXdJtxGpdCsWTWM/06RQ1A/WZMebFEh7lgUq/51
UHg+TLAchhP6a5i84DuUHoVS3AOTJBhuyydRReZw3iVDpA3hSqXttn7IzW3uLh0n
c13cRTCAquOyQQuvvUSH2rnlG51/ruWFgqUCAwEAAaOCAWUwggFhMB8GA1UdIwQY
MBaAFLuvfgI9+qbxPISOre44mOzZMjLUMB0GA1UdDgQWBBSQr2o6lFoL2JDqElZz
30O0Oija5zAOBgNVHQ8BAf8EBAMCAYYwEgYDVR0TAQH/BAgwBgEB/wIBADAdBgNV
HSUEFjAUBggrBgEFBQcDAQYIKwYBBQUHAwIwGwYDVR0gBBQwEjAGBgRVHSAAMAgG
BmeBDAECATBMBgNVHR8ERTBDMEGgP6A9hjtodHRwOi8vY3JsLmNvbW9kb2NhLmNv
bS9DT01PRE9SU0FDZXJ0aWZpY2F0aW9uQXV0aG9yaXR5LmNybDBxBggrBgEFBQcB
AQRlMGMwOwYIKwYBBQUHMAKGL2h0dHA6Ly9jcnQuY29tb2RvY2EuY29tL0NPTU9E
T1JTQUFkZFRydXN0Q0EuY3J0MCQGCCsGAQUFBzABhhhodHRwOi8vb2NzcC5jb21v
ZG9jYS5jb20wDQYJKoZIhvcNAQEMBQADggIBAE4rdk+SHGI2ibp3wScF9BzWRJ2p
mj6q1WZmAT7qSeaiNbz69t2Vjpk1mA42GHWx3d1Qcnyu3HeIzg/3kCDKo2cuH1Z/
e+FE6kKVxF0NAVBGFfKBiVlsit2M8RKhjTpCipj4SzR7JzsItG8kO3KdY3RYPBps
P0/HEZrIqPW1N+8QRcZs2eBelSaz662jue5/DJpmNXMyYE7l3YphLG5SEXdoltMY
dVEVABt0iN3hxzgEQyjpFv3ZBdRdRydg1vs4O2xyopT4Qhrf7W8GjEXCBgCq5Ojc
2bXhc3js9iPc0d1sjhqPpepUfJa3w/5Vjo1JXvxku88+vZbrac2/4EjxYoIQ5QxG
V/Iz2tDIY+3GH5QFlkoakdH368+PUq4NCNk+qKBR6cGHdNXJ93SrLlP7u3r7l+L4
HyaPs9Kg4DdbKDsx5Q5XLVq4rXmsXiBmGqW5prU5wfWYQ//u+aen/e7KJD2AFsQX
j4rBYKEMrltDR5FL1ZoXX/nUh8HCjLfn4g8wGTeGrODcQgPmlKidrv0PJFGUzpII
0fxQ8ANAe4hZ7Q7drNJ3gjTcBpUC2JD5Leo31Rpg0Gcg19hCC0Wvgmje3WYkN5Ap
lBlGGSW4gNfL1IYoakRwJiNiqZ+Gb7+6kHDSVneFeO/qJakXzlByjAA6quPbYzSf
+AZxAeKCINT+b72x
-----END CERTIFICATE-----
Certificate:
    Data:
        Version: 3 (0x2)
        Serial Number:
            27:66:ee:56:eb:49:f3:8e:ab:d7:70:a2:fc:84:de:22
    Signature Algorithm: sha384WithRSAEncryption
        Issuer: C=SE, O=AddTrust AB, OU=AddTrust External TTP Network, CN=AddTrust External CA Root
        Validity
            Not Before: May 30 10:48:38 2000 GMT
            Not After : May 30 10:48:38 2020 GMT
        Subject: C=GB, ST=Greater Manchester, L=Salford, O=COMODO CA Limited, CN=COMODO RSA Certification Authority
        Subject Public Key Info:
            Public Key Algorithm: rsaEncryption
                Public-Key: (4096 bit)
                Modulus:
                    00:91:e8:54:92:d2:0a:56:b1:ac:0d:24:dd:c5:cf:
                    44:67:74:99:2b:37:a3:7d:23:70:00:71:bc:53:df:
                    c4:fa:2a:12:8f:4b:7f:10:56:bd:9f:70:72:b7:61:
                    7f:c9:4b:0f:17:a7:3d:e3:b0:04:61:ee:ff:11:97:
                    c7:f4:86:3e:0a:fa:3e:5c:f9:93:e6:34:7a:d9:14:
                    6b:e7:9c:b3:85:a0:82:7a:76:af:71:90:d7:ec:fd:
                    0d:fa:9c:6c:fa:df:b0:82:f4:14:7e:f9:be:c4:a6:
                    2f:4f:7f:99:7f:b5:fc:67:43:72:bd:0c:00:d6:89:
                    eb:6b:2c:d3:ed:8f:98:1c:14:ab:7e:e5:e3:6e:fc:
                    d8:a8:e4:92:24:da:43:6b:62:b8:55:fd:ea:c1:bc:
                    6c:b6:8b:f3:0e:8d:9a:e4:9b:6c:69:99:f8:78:48:
                    30:45:d5:ad:e1:0d:3c:45:60:fc:32:96:51:27:bc:
                    67:c3:ca:2e:b6:6b:ea:46:c7:c7:20:a0:b1:1f:65:
                    de:48:08:ba:a4:4e:a9:f2:83:46:37:84:eb:e8:cc:
                    81:48:43:67:4e:72:2a:9b:5c:bd:4c:1b:28:8a:5c:
                    22:7b:b4:ab:98:d9:ee:e0:51:83:c3:09:46:4e:6d:
                    3e:99:fa:95:17:da:7c:33:57:41:3c:8d:51:ed:0b:
                    b6:5c:af:2c:63:1a:df:57:c8:3f:bc:e9:5d:c4:9b:
                    af:45:99:e2:a3:5a:24:b4:ba:a9:56:3d:cf:6f:aa:
                    ff:49:58:be:f0:a8:ff:f4:b8:ad:e9:37:fb:ba:b8:
                    f4:0b:3a:f9:e8:43:42:1e:89:d8:84:cb:13:f1:d9:
                    bb:e1:89:60:b8:8c:28:56:ac:14:1d:9c:0a:e7:71:
                    eb:cf:0e:dd:3d:a9:96:a1:48:bd:3c:f7:af:b5:0d:
                    22:4c:c0:11:81:ec:56:3b:f6:d3:a2:e2:5b:b7:b2:
                    04:22:52:95:80:93:69:e8:8e:4c:65:f1:91:03:2d:
                    70:74:02:ea:8b:67:15:29:69:52:02:bb:d7:df:50:
                    6a:55:46:bf:a0:a3:28:61:7f:70:d0:c3:a2:aa:2c:
                    21:aa:47:ce:28:9c:06:45:76:bf:82:18:27:b4:d5:
                    ae:b4:cb:50:e6:6b:f4:4c:86:71:30:e9:a6:df:16:
                    86:e0:d8:ff:40:dd:fb:d0:42:88:7f:a3:33:3a:2e:
                    5c:1e:41:11:81:63:ce:18:71:6b:2b:ec:a6:8a:b7:
                    31:5c:3a:6a:47:e0:c3:79:59:d6:20:1a:af:f2:6a:
                    98:aa:72:bc:57:4a:d2:4b:9d:bb:10:fc:b0:4c:41:
                    e5:ed:1d:3d:5e:28:9d:9c:cc:bf:b3:51:da:a7:47:
                    e5:84:53
                Exponent: 65537 (0x10001)
        X509v3 extensions:
            X509v3 Authority Key Identifier: 
                keyid:AD:BD:98:7A:34:B4:26:F7:FA:C4:26:54:EF:03:BD:E0:24:CB:54:1A

            X509v3 Subject Key Identifier: 
                BB:AF:7E:02:3D:FA:A6:F1:3C:84:8E:AD:EE:38:98:EC:D9:32:32:D4
            X509v3 Key Usage: critical
                Digital Signature, Certificate Sign, CRL Sign
            X509v3 Basic Constraints: critical
                CA:TRUE
            X509v3 Certificate Policies: 
                Policy: X509v3 Any Policy

            X509v3 CRL Distribution Points: 

                Full Name:
                  URI:http://crl.usertrust.com/AddTrustExternalCARoot.crl

            Authority Information Access: 
                OCSP - URI:http://ocsp.usertrust.com

    Signature Algorithm: sha384WithRSAEncryption
         64:bf:83:f1:5f:9a:85:d0:cd:b8:a1:29:57:0d:e8:5a:f7:d1:
         e9:3e:f2:76:04:6e:f1:52:70:bb:1e:3c:ff:4d:0d:74:6a:cc:
         81:82:25:d3:c3:a0:2a:5d:4c:f5:ba:8b:a1:6d:c4:54:09:75:
         c7:e3:27:0e:5d:84:79:37:40:13:77:f5:b4:ac:1c:d0:3b:ab:
         17:12:d6:ef:34:18:7e:2b:e9:79:d3:ab:57:45:0c:af:28:fa:
         d0:db:e5:50:95:88:bb:df:85:57:69:7d:92:d8:52:ca:73:81:
         bf:1c:f3:e6:b8:6e:66:11:05:b3:1e:94:2d:7f:91:95:92:59:
         f1:4c:ce:a3:91:71:4c:7c:47:0c:3b:0b:19:f6:a1:b1:6c:86:
         3e:5c:aa:c4:2e:82:cb:f9:07:96:ba:48:4d:90:f2:94:c8:a9:
         73:a2:eb:06:7b:23:9d:de:a2:f3:4d:55:9f:7a:61:45:98:18:
         68:c7:5e:40:6b:23:f5:79:7a:ef:8c:b5:6b:8b:b7:6f:46:f4:
         7b:f1:3d:4b:04:d8:93:80:59:5a:e0:41:24:1d:b2:8f:15:60:
         58:47:db:ef:6e:46:fd:15:f5:d9:5f:9a:b3:db:d8:b8:e4:40:
         b3:cd:97:39:ae:85:bb:1d:8e:bc:dc:87:9b:d1:a6:ef:f1:3b:
         6f:10:38:6f
-----BEGIN CERTIFICATE-----
MIIFdDCCBFygAwIBAgIQJ2buVutJ846r13Ci/ITeIjANBgkqhkiG9w0BAQwFADBv
MQswCQYDVQQGEwJTRTEUMBIGA1UEChMLQWRkVHJ1c3QgQUIxJjAkBgNVBAsTHUFk
ZFRydXN0IEV4dGVybmFsIFRUUCBOZXR3b3JrMSIwIAYDVQQDExlBZGRUcnVzdCBF
eHRlcm5hbCBDQSBSb290MB4XDTAwMDUzMDEwNDgzOFoXDTIwMDUzMDEwNDgzOFow
gYUxCzAJBgNVBAYTAkdCMRswGQYDVQQIExJHcmVhdGVyIE1hbmNoZXN0ZXIxEDAO
BgNVBAcTB1NhbGZvcmQxGjAYBgNVBAoTEUNPTU9ETyBDQSBMaW1pdGVkMSswKQYD
VQQDEyJDT01PRE8gUlNBIENlcnRpZmljYXRpb24gQXV0aG9yaXR5MIICIjANBgkq
hkiG9w0BAQEFAAOCAg8AMIICCgKCAgEAkehUktIKVrGsDSTdxc9EZ3SZKzejfSNw
AHG8U9/E+ioSj0t/EFa9n3Byt2F/yUsPF6c947AEYe7/EZfH9IY+Cvo+XPmT5jR6
2RRr55yzhaCCenavcZDX7P0N+pxs+t+wgvQUfvm+xKYvT3+Zf7X8Z0NyvQwA1onr
ayzT7Y+YHBSrfuXjbvzYqOSSJNpDa2K4Vf3qwbxstovzDo2a5JtsaZn4eEgwRdWt
4Q08RWD8MpZRJ7xnw8outmvqRsfHIKCxH2XeSAi6pE6p8oNGN4Tr6MyBSENnTnIq
m1y9TBsoilwie7SrmNnu4FGDwwlGTm0+mfqVF9p8M1dBPI1R7Qu2XK8sYxrfV8g/
vOldxJuvRZnio1oktLqpVj3Pb6r/SVi+8Kj/9Lit6Tf7urj0Czr56ENCHonYhMsT
8dm74YlguIwoVqwUHZwK53Hrzw7dPamWoUi9PPevtQ0iTMARgexWO/bTouJbt7IE
IlKVgJNp6I5MZfGRAy1wdALqi2cVKWlSArvX31BqVUa/oKMoYX9w0MOiqiwhqkfO
KJwGRXa/ghgntNWutMtQ5mv0TIZxMOmm3xaG4Nj/QN370EKIf6MzOi5cHkERgWPO
GHFrK+ymircxXDpqR+DDeVnWIBqv8mqYqnK8V0rSS527EPywTEHl7R09XiidnMy/
s1Hap0flhFMCAwEAAaOB9DCB8TAfBgNVHSMEGDAWgBStvZh6NLQm9/rEJlTvA73g
JMtUGjAdBgNVHQ4EFgQUu69+Aj36pvE8hI6t7jiY7NkyMtQwDgYDVR0PAQH/BAQD
AgGGMA8GA1UdEwEB/wQFMAMBAf8wEQYDVR0gBAowCDAGBgRVHSAAMEQGA1UdHwQ9
MDswOaA3oDWGM2h0dHA6Ly9jcmwudXNlcnRydXN0LmNvbS9BZGRUcnVzdEV4dGVy
bmFsQ0FSb290LmNybDA1BggrBgEFBQcBAQQpMCcwJQYIKwYBBQUHMAGGGWh0dHA6
Ly9vY3NwLnVzZXJ0cnVzdC5jb20wDQYJKoZIhvcNAQEMBQADggEBAGS/g/FfmoXQ
zbihKVcN6Fr30ek+8nYEbvFScLsePP9NDXRqzIGCJdPDoCpdTPW6i6FtxFQJdcfj
Jw5dhHk3QBN39bSsHNA7qxcS1u80GH4r6XnTq1dFDK8o+tDb5VCViLvfhVdpfZLY
Uspzgb8c8+a4bmYRBbMelC1/kZWSWfFMzqORcUx8Rww7Cxn2obFshj5cqsQugsv5
B5a6SE2Q8pTIqXOi6wZ7I53eovNNVZ96YUWYGGjHXkBrI/V5eu+MtWuLt29G9Hvx
PUsE2JOAWVrgQSQdso8VYFhH2+9uRv0V9dlfmrPb2LjkQLPNlzmuhbsdjrzch5vR
pu/xO28QOG8=
-----END CERTIFICATE-----
Certificate:
    Data:
        Version: 3 (0x2)
        Serial Number: 1 (0x1)
    Signature Algorithm: sha1WithRSAEncryption
        Issuer: C=SE, O=AddTrust AB, OU=AddTrust External TTP Network, CN=AddTrust External CA Root
        Validity
            Not Before: May 30 10:48:38 2000 GMT
            Not After : May 30 10:48:38 2020 GMT
        Subject: C=SE, O=AddTrust AB, OU=AddTrust External TTP Network, CN=AddTrust External CA Root
        Subject Public Key Info:
            Public Key Algorithm: rsaEncryption
                Public-Key: (2048 bit)
                Modulus:
                    00:b7:f7:1a:33:e6:f2:00:04:2d:39:e0:4e:5b:ed:
                    1f:bc:6c:0f:cd:b5:fa:23:b6:ce:de:9b:11:33:97:
                    a4:29:4c:7d:93:9f:bd:4a:bc:93:ed:03:1a:e3:8f:
                    cf:e5:6d:50:5a:d6:97:29:94:5a:80:b0:49:7a:db:
                    2e:95:fd:b8:ca:bf:37:38:2d:1e:3e:91:41:ad:70:
                    56:c7:f0:4f:3f:e8:32:9e:74:ca:c8:90:54:e9:c6:
                    5f:0f:78:9d:9a:40:3c:0e:ac:61:aa:5e:14:8f:9e:
                    87:a1:6a:50:dc:d7:9a:4e:af:05:b3:a6:71:94:9c:
                    71:b3:50:60:0a:c7:13:9d:38:07:86:02:a8:e9:a8:
                    69:26:18:90:ab:4c:b0:4f:23:ab:3a:4f:84:d8:df:
                    ce:9f:e1:69:6f:bb:d7:42:d7:6b:44:e4:c7:ad:ee:
                    6d:41:5f:72:5a:71:08:37:b3:79:65:a4:59:a0:94:
                    37:f7:00:2f:0d:c2:92:72:da:d0:38:72:db:14:a8:
                    45:c4:5d:2a:7d:b7:b4:d6:c4:ee:ac:cd:13:44:b7:
                    c9:2b:dd:43:00:25:fa:61:b9:69:6a:58:23:11:b7:
                    a7:33:8f:56:75:59:f5:cd:29:d7:46:b7:0a:2b:65:
                    b6:d3:42:6f:15:b2:b8:7b:fb:ef:e9:5d:53:d5:34:
                    5a:27
                Exponent: 65537 (0x10001)
        X509v3 extensions:
            X509v3 Subject Key Identifier: 
                AD:BD:98:7A:34:B4:26:F7:FA:C4:26:54:EF:03:BD:E0:24:CB:54:1A
            X509v3 Key Usage: 
                Certificate Sign, CRL Sign
            X509v3 Basic Constraints: critical
                CA:TRUE
            X509v3 Authority Key Identifier: 
                keyid:AD:BD:98:7A:34:B4:26:F7:FA:C4:26:54:EF:03:BD:E0:24:CB:54:1A
                DirName:/C=SE/O=AddTrust AB/OU=AddTrust External TTP Network/CN=AddTrust External CA Root
                serial:01

    Signature Algorithm: sha1WithRSAEncryption
         b0:9b:e0:85:25:c2:d6:23:e2:0f:96:06:92:9d:41:98:9c:d9:
         84:79:81:d9:1e:5b:14:07:23:36:65:8f:b0:d8:77:bb:ac:41:
         6c:47:60:83:51:b0:f9:32:3d:e7:fc:f6:26:13:c7:80:16:a5:
         bf:5a:fc:87:cf:78:79:89:21:9a:e2:4c:07:0a:86:35:bc:f2:
         de:51:c4:d2:96:b7:dc:7e:4e:ee:70:fd:1c:39:eb:0c:02:51:
         14:2d:8e:bd:16:e0:c1:df:46:75:e7:24:ad:ec:f4:42:b4:85:
         93:70:10:67:ba:9d:06:35:4a:18:d3:2b:7a:cc:51:42:a1:7a:
         63:d1:e6:bb:a1:c5:2b:c2:36:be:13:0d:e6:bd:63:7e:79:7b:
         a7:09:0d:40:ab:6a:dd:8f:8a:c3:f6:f6:8c:1a:42:05:51:d4:
         45:f5:9f:a7:62:21:68:15:20:43:3c:99:e7:7c:bd:24:d8:a9:
         91:17:73:88:3f:56:1b:31:38:18:b4:71:0f:9a:cd:c8:0e:9e:
         8e:2e:1b:e1:8c:98:83:cb:1f:31:f1:44:4c:c6:04:73:49:76:
         60:0f:c7:f8:bd:17:80:6b:2e:e9:cc:4c:0e:5a:9a:79:0f:20:
         0a:2e:d5:9e:63:26:1e:55:92:94:d8:82:17:5a:7b:d0:bc:c7:
         8f:4e:86:04
-----BEGIN CERTIFICATE-----
MIIENjCCAx6gAwIBAgIBATANBgkqhkiG9w0BAQUFADBvMQswCQYDVQQGEwJTRTEU
MBIGA1UEChMLQWRkVHJ1c3QgQUIxJjAkBgNVBAsTHUFkZFRydXN0IEV4dGVybmFs
IFRUUCBOZXR3b3JrMSIwIAYDVQQDExlBZGRUcnVzdCBFeHRlcm5hbCBDQSBSb290
MB4XDTAwMDUzMDEwNDgzOFoXDTIwMDUzMDEwNDgzOFowbzELMAkGA1UEBhMCU0Ux
FDASBgNVBAoTC0FkZFRydXN0IEFCMSYwJAYDVQQLEx1BZGRUcnVzdCBFeHRlcm5h
bCBUVFAgTmV0d29yazEiMCAGA1UEAxMZQWRkVHJ1c3QgRXh0ZXJuYWwgQ0EgUm9v
dDCCASIwDQYJKoZIhvcNAQEBBQADggEPADCCAQoCggEBALf3GjPm8gAELTngTlvt
H7xsD821+iO2zt6bETOXpClMfZOfvUq8k+0DGuOPz+VtUFrWlymUWoCwSXrbLpX9
uMq/NzgtHj6RQa1wVsfwTz/oMp50ysiQVOnGXw94nZpAPA6sYapeFI+eh6FqUNzX
mk6vBbOmcZSccbNQYArHE504B4YCqOmoaSYYkKtMsE8jqzpPhNjfzp/haW+710LX
a0Tkx63ubUFfclpxCDezeWWkWaCUN/cALw3CknLa0Dhy2xSoRcRdKn23tNbE7qzN
E0S3ySvdQwAl+mG5aWpYIxG3pzOPVnVZ9c0p10a3CitlttNCbxWyuHv77+ldU9U0
WicCAwEAAaOB3DCB2TAdBgNVHQ4EFgQUrb2YejS0Jvf6xCZU7wO94CTLVBowCwYD
VR0PBAQDAgEGMA8GA1UdEwEB/wQFMAMBAf8wgZkGA1UdIwSBkTCBjoAUrb2YejS0
Jvf6xCZU7wO94CTLVBqhc6RxMG8xCzAJBgNVBAYTAlNFMRQwEgYDVQQKEwtBZGRU
cnVzdCBBQjEmMCQGA1UECxMdQWRkVHJ1c3QgRXh0ZXJuYWwgVFRQIE5ldHdvcmsx
IjAgBgNVBAMTGUFkZFRydXN0IEV4dGVybmFsIENBIFJvb3SCAQEwDQYJKoZIhvcN
AQEFBQADggEBALCb4IUlwtYj4g+WBpKdQZic2YR5gdkeWxQHIzZlj7DYd7usQWxH
YINRsPkyPef89iYTx4AWpb9a/IfPeHmJIZriTAcKhjW88t5RxNKWt9x+Tu5w/Rw5
6wwCURQtjr0W4MHfRnXnJK3s9EK0hZNwEGe6nQY1ShjTK3rMUUKhemPR5ruhxSvC
Nr4TDea9Y355e6cJDUCrat2PisP29owaQgVR1EX1n6diIWgVIEM8med8vSTYqZEX
c4g/VhsxOBi0cQ+azcgOno4uG+GMmIPLHzHxREzGBHNJdmAPx/i9F4BrLunMTA5a
mnkPIAou1Z5jJh5VkpTYghdae9C8x49OhgQ=
-----END CERTIFICATE-----
