Certificate:
    Data:
        Version: 3 (0x2)
        Serial Number:
            17:23:50:28:00:00:00:07:87:de
    Signature Algorithm: sha1WithRSAEncryption
        Issuer: OU=WM Transfer Certification Services, O=WM Transfer Ltd, CN=WebMoney Transfer Root CA
        Validity
            Not Before: May 19 17:47:35 2014 GMT
            Not After : May 19 17:57:35 2016 GMT
        Subject: O=WebMoney Transfer, OU=WebMoney Certification Center, CN=WM id: 952332683666/emailAddress=wm@romanr.info
        Subject Public Key Info:
            Public Key Algorithm: rsaEncryption
                Public-Key: (2048 bit)
                Modulus:
                    00:d6:59:96:06:2d:81:20:a6:4f:60:22:c6:2e:c7:
                    14:92:34:7f:b1:07:e2:16:9d:78:6e:26:7e:e8:26:
                    09:8f:bf:0f:3f:18:c0:c2:1a:d8:09:30:44:66:fe:
                    6d:a1:20:1f:30:35:c6:de:23:71:6e:d7:8d:84:9b:
                    1a:27:58:1c:27:ab:d1:3c:c6:aa:61:35:9e:43:13:
                    e5:97:26:79:03:eb:da:d7:9c:5a:6f:82:0e:b5:af:
                    c9:20:c6:9d:f4:00:01:96:8a:85:4d:13:14:e2:76:
                    45:d5:5d:c1:ea:2e:9c:c1:c1:af:0f:b3:ed:67:c3:
                    c4:3e:97:97:14:12:b7:69:9a:67:cc:1b:8a:0f:96:
                    1c:c5:de:92:a1:58:cf:d7:dd:94:30:4c:f8:c5:71:
                    d6:49:8c:83:be:ca:7b:18:56:2a:ae:a1:f3:cd:38:
                    99:e6:54:80:03:e0:f0:37:7a:44:0d:4e:2e:ce:3a:
                    86:c3:21:f9:1c:80:64:e4:a2:86:bf:5e:64:90:c8:
                    ee:be:3b:3b:0e:38:99:cd:92:30:74:d2:1d:13:58:
                    29:be:82:8c:ba:e7:d7:c6:69:91:69:fe:35:b5:b6:
                    fa:1d:c4:75:78:0a:e3:a0:39:23:11:89:e5:15:3c:
                    2a:b3:ac:30:96:b6:07:6d:7f:96:b6:90:38:13:39:
                    b6:e7
                Exponent: 65537 (0x10001)
        X509v3 extensions:
            X509v3 Subject Key Identifier: 
                C1:F2:E6:50:29:2E:42:AC:C9:C1:29:85:65:A5:7C:F7:B0:F1:55:81
            X509v3 Authority Key Identifier: 
                keyid:B1:30:A7:4B:03:99:4F:84:36:1C:13:7D:57:F4:EB:69:FB:88:1B:C3

            X509v3 CRL Distribution Points: 

                Full Name:
                  URI:http://cert.wmtransfer.com/CertEnroll/WebMoney%20Transfer%20Root%20CA.crl
                  URI:file://cert.wmtransfer.com/CertEnroll/WebMoney Transfer Root CA.crl

            Authority Information Access: 
                CA Issuers - URI:http://cert.wmtransfer.com/CertEnroll/cert.wmtransfer.com_WebMoney%20Transfer%20Root%20CA.crt
                CA Issuers - URI:file://cert.wmtransfer.com/CertEnroll/cert.wmtransfer.com_WebMoney Transfer Root CA.crt

            X509v3 Extended Key Usage: 
                TLS Web Client Authentication, E-mail Protection
            1.3.6.1.4.1.311.21.10: 
                0.0
..+.......0
..+.......
    Signature Algorithm: sha1WithRSAEncryption
         55:20:37:ed:fd:82:f2:b8:d5:04:6b:ae:f0:4a:56:a9:09:16:
         4b:7f:af:c9:6c:51:e4:59:56:a9:5c:4b:11:58:1b:ac:2d:1b:
         57:e1:58:29:96:22:a0:ed:3f:ca:0e:e0:42:a1:92:ab:ec:2e:
         c7:1c:04:3c:cc:0a:d1:7a:32:94:a1:f3:a5:61:0f:ba:b3:59:
         bb:61:50:b0:bb:12:36:c5:65:f0:08:1a:1a:8b:b0:3f:4e:ae:
         6e:bd:10:e8:e3:2f:7a:90:06:97:43:20:f2:03:9c:be:4d:b4:
         92:a4:83:fe:2d:95:ff:8e:c6:35:b9:e2:7f:1a:6f:27:af:9b:
         e2:da:e9:5f:ff:7a:2b:3d:c4:07:2c:72:fb:47:e0:dc:d1:1a:
         0e:28:5a:50:44:22:ab:8b:b0:b1:fa:6c:21:1d:a8:7e:74:d6:
         2b:78:a6:ef:4b:51:6d:81:3a:8a:00:33:82:59:67:7b:d2:84:
         c5:b7:8e:ae:97:8f:d7:34:b3:c4:e3:b4:8e:61:90:53:26:20:
         e2:c4:b0:05:ed:0e:52:96:c3:af:17:34:9e:f1:90:67:27:4b:
         7d:c8:0b:26:aa:90:86:8a:31:a6:38:73:e3:e7:17:62:7e:3a:
         b1:fc:ac:8f:c6:48:85:09:9b:91:ba:d6:51:c1:1e:82:85:c6:
         72:5b:af:d4:b3:93:35:3d:75:8a:7f:7c:11:ab:9f:27:ba:f1:
         cd:8b:86:24:ff:55:b1:03:31:ef:e2:2a:e2:eb:51:09:39:d8:
         c5:30:99:fd:1f:d9:51:d9:51:f8:c9:b6:3a:ae:a2:a4:b1:d5:
         43:02:91:a4:98:f7:c9:a1:fc:e2:4c:99:85:bd:18:45:49:c5:
         8a:86:ff:b4:a7:ef:82:52:10:97:fd:34:2b:58:04:de:4d:d8:
         09:7b:f6:60:02:de:4b:cc:01:52:f2:30:e9:9c:cf:a3:eb:c2:
         4b:ff:63:ab:16:57:59:02:dc:a0:bd:b4:66:f4:6d:c6:93:55:
         50:b8:9a:7c:1c:bb:d1:d0:1f:0f:95:e3:96:f8:35:31:e7:b6:
         24:a5:be:d0:6f:e2:49:c0:38:ab:0b:d6:a5:69:13:e5:34:ad:
         92:07:31:4e:0c:84:e2:69:67:c8:9e:63:45:5f:07:f7:8d:67:
         c3:6e:b3:3e:1c:d9:c1:a8:ac:12:e3:ca:37:37:03:47:c8:0c:
         7e:f3:f8:ab:d7:9d:53:ac:27:d7:2b:61:dc:bc:5e:1e:80:b8:
         64:a5:e3:3a:2d:11:e0:37:12:ba:ef:1c:65:3b:86:2d:a0:42:
         a2:f9:c0:26:9f:5e:6f:59:fe:87:a8:96:36:0c:b9:fe:74:fc:
         c0:d0:c0:88:37:2e:35:07
-----BEGIN CERTIFICATE-----
MIIGiTCCBHGgAwIBAgIKFyNQKAAAAAeH3jANBgkqhkiG9w0BAQUFADBrMSswKQYD
VQQLEyJXTSBUcmFuc2ZlciBDZXJ0aWZpY2F0aW9uIFNlcnZpY2VzMRgwFgYDVQQK
Ew9XTSBUcmFuc2ZlciBMdGQxIjAgBgNVBAMTGVdlYk1vbmV5IFRyYW5zZmVyIFJv
b3QgQ0EwHhcNMTQwNTE5MTc0NzM1WhcNMTYwNTE5MTc1NzM1WjCBgTEaMBgGA1UE
ChMRV2ViTW9uZXkgVHJhbnNmZXIxJjAkBgNVBAsTHVdlYk1vbmV5IENlcnRpZmlj
YXRpb24gQ2VudGVyMRwwGgYDVQQDExNXTSBpZDogOTUyMzMyNjgzNjY2MR0wGwYJ
KoZIhvcNAQkBFg53bUByb21hbnIuaW5mbzCCASIwDQYJKoZIhvcNAQEBBQADggEP
ADCCAQoCggEBANZZlgYtgSCmT2Aixi7HFJI0f7EH4hadeG4mfugmCY+/Dz8YwMIa
2AkwRGb+baEgHzA1xt4jcW7XjYSbGidYHCer0TzGqmE1nkMT5ZcmeQPr2tecWm+C
DrWvySDGnfQAAZaKhU0TFOJ2RdVdweounMHBrw+z7WfDxD6XlxQSt2maZ8wbig+W
HMXekqFYz9fdlDBM+MVx1kmMg77KexhWKq6h8804meZUgAPg8Dd6RA1OLs46hsMh
+RyAZOSihr9eZJDI7r47Ow44mc2SMHTSHRNYKb6CjLrn18ZpkWn+NbW2+h3EdXgK
46A5IxGJ5RU8KrOsMJa2B21/lraQOBM5tucCAwEAAaOCAhYwggISMB0GA1UdDgQW
BBTB8uZQKS5CrMnBKYVlpXz3sPFVgTAfBgNVHSMEGDAWgBSxMKdLA5lPhDYcE31X
9Otp+4gbwzCBpAYDVR0fBIGcMIGZMIGWoIGToIGQhklodHRwOi8vY2VydC53bXRy
YW5zZmVyLmNvbS9DZXJ0RW5yb2xsL1dlYk1vbmV5JTIwVHJhbnNmZXIlMjBSb290
JTIwQ0EuY3JshkNmaWxlOi8vY2VydC53bXRyYW5zZmVyLmNvbS9DZXJ0RW5yb2xs
L1dlYk1vbmV5IFRyYW5zZmVyIFJvb3QgQ0EuY3JsMIHgBggrBgEFBQcBAQSB0zCB
0DBpBggrBgEFBQcwAoZdaHR0cDovL2NlcnQud210cmFuc2Zlci5jb20vQ2VydEVu
cm9sbC9jZXJ0LndtdHJhbnNmZXIuY29tX1dlYk1vbmV5JTIwVHJhbnNmZXIlMjBS
b290JTIwQ0EuY3J0MGMGCCsGAQUFBzAChldmaWxlOi8vY2VydC53bXRyYW5zZmVy
LmNvbS9DZXJ0RW5yb2xsL2NlcnQud210cmFuc2Zlci5jb21fV2ViTW9uZXkgVHJh
bnNmZXIgUm9vdCBDQS5jcnQwHQYDVR0lBBYwFAYIKwYBBQUHAwIGCCsGAQUFBwME
MCcGCSsGAQQBgjcVCgQaMBgwCgYIKwYBBQUHAwIwCgYIKwYBBQUHAwQwDQYJKoZI
hvcNAQEFBQADggIBAFUgN+39gvK41QRrrvBKVqkJFkt/r8lsUeRZVqlcSxFYG6wt
G1fhWCmWIqDtP8oO4EKhkqvsLsccBDzMCtF6MpSh86VhD7qzWbthULC7EjbFZfAI
GhqLsD9Orm69EOjjL3qQBpdDIPIDnL5NtJKkg/4tlf+OxjW54n8abyevm+La6V//
eis9xAcscvtH4NzRGg4oWlBEIquLsLH6bCEdqH501it4pu9LUW2BOooAM4JZZ3vS
hMW3jq6Xj9c0s8TjtI5hkFMmIOLEsAXtDlKWw68XNJ7xkGcnS33ICyaqkIaKMaY4
c+PnF2J+OrH8rI/GSIUJm5G61lHBHoKFxnJbr9SzkzU9dYp/fBGrnye68c2LhiT/
VbEDMe/iKuLrUQk52MUwmf0f2VHZUfjJtjquoqSx1UMCkaSY98mh/OJMmYW9GEVJ
xYqG/7Sn74JSEJf9NCtYBN5N2Al79mAC3kvMAVLyMOmcz6Prwkv/Y6sWV1kC3KC9
tGb0bcaTVVC4mnwcu9HQHw+V45b4NTHntiSlvtBv4knAOKsL1qVpE+U0rZIHMU4M
hOJpZ8ieY0VfB/eNZ8Nusz4c2cGorBLjyjc3A0fIDH7z+KvXnVOsJ9crYdy8Xh6A
uGSl4zotEeA3ErrvHGU7hi2gQqL5wCafXm9Z/oeoljYMuf50/MDQwIg3LjUH
-----END CERTIFICATE-----
